; Function Attrs: mustprogress nounwind uwtable
define hidden { ptr, i8 } @_ZNK25MergePrimitiveArrayStores29find_def_store_unidirectionalEPK9StoreNode(ptr nocapture noundef nonnull readonly align 8 dereferenceable(16) %0, ptr noundef %1) local_unnamed_addr #1 align 2 {
  %3 = getelementptr inbounds i8, ptr %1, i64 8
  %4 = load ptr, ptr %3, align 8
  %5 = getelementptr inbounds i8, ptr %4, i64 8
  %6 = load ptr, ptr %5, align 8
  %7 = getelementptr inbounds i8, ptr %6, i64 44
  %8 = load i32, ptr %7, align 4
  %9 = and i32 %8, 127
  %10 = icmp eq i32 %9, 80
  %spec.select.i = select i1 %10, ptr %6, ptr null
  %11 = tail call noundef zeroext i1 @_ZNK25MergePrimitiveArrayStores19is_compatible_storeEPK9StoreNode(ptr noundef nonnull align 8 dereferenceable(16) %0, ptr noundef %spec.select.i)
  br i1 %11, label %12, label %17

12:                                               ; preds = %2
  %13 = tail call noundef i32 @_ZN25MergePrimitiveArrayStores19cfg_status_for_pairEPK9StoreNodeS2_(ptr noundef nonnull %1, ptr noundef %spec.select.i)
  %14 = icmp eq i32 %13, 2
  %15 = icmp eq i32 %13, 1
  %16 = zext i1 %15 to i8
  %.sroa.0.0.i = select i1 %14, ptr null, ptr %spec.select.i
  %.fca.0.insert.i = insertvalue { ptr, i8 } poison, ptr %.sroa.0.0.i, 0
  %.fca.1.insert.i = insertvalue { ptr, i8 } %.fca.0.insert.i, i8 %16, 1
  br label %17

17:                                               ; preds = %2, %12
  %.pn = phi { ptr, i8 } [ %.fca.1.insert.i, %12 ], [ zeroinitializer, %2 ]
  ret { ptr, i8 } %.pn
}